target datalayout = "e-m:e-p270:32:32-p271:32:32-p272:64:64-i64:64-i128:128-f80:128-n8:16:32:64-S128"
target triple = "x86_64-pc-linux-gnu"

%"class.OpenColorIO_v2_5dev::MatrixOpData::Offsets" = type { [4 x double] }

; Function Attrs: mustprogress nounwind uwtable
define hidden noundef nonnull align 8 dereferenceable(32) ptr @_ZN19OpenColorIO_v2_5dev12MatrixOpData7OffsetsaSERKS1_(ptr noundef nonnull align 8 dereferenceable(32) %0, ptr noundef nonnull align 8 dereferenceable(32) %1) #7 align 2 {
  %3 = alloca ptr, align 8
  %4 = alloca ptr, align 8
  store ptr %0, ptr %3, align 8, !tbaa !3
  store ptr %1, ptr %4, align 8, !tbaa !3
  %5 = load ptr, ptr %3, align 8
  %6 = load ptr, ptr %4, align 8, !tbaa !3
  %7 = icmp ne ptr %5, %6
  br i1 %7, label %8, label %14

8:                                                ; preds = %2
  %9 = getelementptr inbounds nuw %"class.OpenColorIO_v2_5dev::MatrixOpData::Offsets", ptr %5, i32 0, i32 0
  %10 = getelementptr inbounds [4 x double], ptr %9, i64 0, i64 0
  %11 = load ptr, ptr %4, align 8, !tbaa !3
  %12 = getelementptr inbounds nuw %"class.OpenColorIO_v2_5dev::MatrixOpData::Offsets", ptr %11, i32 0, i32 0
  %13 = getelementptr inbounds [4 x double], ptr %12, i64 0, i64 0
  call void @llvm.memcpy.p0.p0.i64(ptr align 8 %10, ptr align 8 %13, i64 32, i1 false)
  br label %14

14:                                               ; preds = %8, %2
  ret ptr %5
}