; Function Attrs: mustprogress nofree norecurse nosync nounwind willreturn memory(argmem: readwrite) uwtable
define hidden noundef nonnull align 8 dereferenceable(32) ptr @_ZN19OpenColorIO_v2_5dev12MatrixOpData7OffsetsaSERKS1_(ptr noundef nonnull returned writeonly align 8 dereferenceable(32) %0, ptr noundef nonnull readonly align 8 dereferenceable(32) %1) local_unnamed_addr #10 align 2 {
  %.not = icmp eq ptr %0, %1
  br i1 %.not, label %4, label %3

3:                                                ; preds = %2
  tail call void @llvm.memcpy.p0.p0.i64(ptr noundef nonnull align 8 dereferenceable(32) %0, ptr noundef nonnull align 8 dereferenceable(32) %1, i64 32, i1 false)
  br label %4

4:                                                ; preds = %3, %2
  ret ptr %0
}